target datalayout = "e-m:e-p270:32:32-p271:32:32-p272:64:64-i64:64-i128:128-f80:128-n8:16:32:64-S128"
target triple = "x86_64-pc-linux-gnu"

%"class.BCEscapeAnalyzer::ArgumentMap" = type { i32 }
%class.BCEscapeAnalyzer = type <{ ptr, i8, [7 x i8], ptr, ptr, i32, [4 x i8], %class.VectorSet, %class.VectorSet, %class.VectorSet, ptr, i8, i8, i8, i8, [4 x i8], %class.GrowableArray, ptr, ptr, i32, [4 x i8] }>
%class.VectorSet = type { i32, ptr, i32, ptr }
%class.GrowableArray = type { %class.GrowableArrayWithAllocator, %class.GrowableArrayMetadata }
%class.GrowableArrayWithAllocator = type { %class.GrowableArrayView }
%class.GrowableArrayView = type { %class.GrowableArrayBase, ptr }
%class.GrowableArrayBase = type { i32, i32 }
%class.GrowableArrayMetadata = type { i64 }

; Function Attrs: mustprogress nounwind uwtable
define linkonce_odr hidden noundef i32 @_ZNK16BCEscapeAnalyzer11ArgumentMap10int_to_bitEj(ptr noundef nonnull align 4 dereferenceable(4) %0, i32 noundef %1) #1 comdat align 2 {
  %3 = alloca ptr, align 8
  %4 = alloca i32, align 4
  store ptr %0, ptr %3, align 8
  store i32 %1, ptr %4, align 4
  %5 = load i32, ptr %4, align 4
  %6 = icmp ugt i32 %5, 29
  br i1 %6, label %7, label %8

7:                                                ; preds = %2
  store i32 29, ptr %4, align 4
  br label %8

8:                                                ; preds = %7, %2
  %9 = load i32, ptr %4, align 4
  %10 = add i32 %9, 2
  %11 = shl i32 1, %10
  ret i32 %11
}

; Function Attrs: mustprogress nounwind uwtable
define linkonce_odr hidden void @_ZN9VectorSet6removeEj(ptr noundef nonnull align 8 dereferenceable(32) %0, i32 noundef %1) #1 comdat align 2 {
  %3 = alloca ptr, align 8
  %4 = alloca i32, align 4
  %5 = alloca i32, align 4
  %6 = alloca i32, align 4
  store ptr %0, ptr %3, align 8
  store i32 %1, ptr %4, align 4
  %7 = load ptr, ptr %3, align 8
  %8 = load i32, ptr %4, align 4
  %9 = lshr i32 %8, 5
  store i32 %9, ptr %5, align 4
  %10 = load i32, ptr %5, align 4
  %11 = getelementptr inbounds %class.VectorSet, ptr %7, i32 0, i32 0
  %12 = load i32, ptr %11, align 8
  %13 = icmp uge i32 %10, %12
  br i1 %13, label %14, label %15

14:                                               ; preds = %2
  br label %28

15:                                               ; preds = %2
  %16 = load i32, ptr %4, align 4
  %17 = and i32 %16, 31
  %18 = shl i32 1, %17
  store i32 %18, ptr %6, align 4
  %19 = load i32, ptr %6, align 4
  %20 = xor i32 %19, -1
  %21 = getelementptr inbounds %class.VectorSet, ptr %7, i32 0, i32 1
  %22 = load ptr, ptr %21, align 8
  %23 = load i32, ptr %5, align 4
  %24 = zext i32 %23 to i64
  %25 = getelementptr inbounds i32, ptr %22, i64 %24
  %26 = load i32, ptr %25, align 4
  %27 = and i32 %26, %20
  store i32 %27, ptr %25, align 4
  br label %28

28:                                               ; preds = %15, %14
  ret void
}

; Function Attrs: mustprogress nounwind uwtable
define linkonce_odr hidden noundef zeroext i1 @_ZNK16BCEscapeAnalyzer11ArgumentMap8containsEj(ptr noundef nonnull align 4 dereferenceable(4) %0, i32 noundef %1) #1 comdat align 2 {
  %3 = alloca ptr, align 8
  %4 = alloca i32, align 4
  store ptr %0, ptr %3, align 8
  store i32 %1, ptr %4, align 4
  %5 = load ptr, ptr %3, align 8
  %6 = getelementptr inbounds %"class.BCEscapeAnalyzer::ArgumentMap", ptr %5, i32 0, i32 0
  %7 = load i32, ptr %6, align 4
  %8 = load i32, ptr %4, align 4
  %9 = call noundef i32 @_ZNK16BCEscapeAnalyzer11ArgumentMap10int_to_bitEj(ptr noundef nonnull align 4 dereferenceable(4) %5, i32 noundef %8)
  %10 = and i32 %7, %9
  %11 = icmp ne i32 %10, 0
  ret i1 %11
}

; Function Attrs: mustprogress nounwind uwtable
define hidden void @_ZN16BCEscapeAnalyzer10clear_bitsENS_11ArgumentMapER9VectorSet(ptr noundef nonnull align 8 dereferenceable(196) %0, i32 %1, ptr noundef nonnull align 8 dereferenceable(32) %2) #1 align 2 {
  %4 = alloca %"class.BCEscapeAnalyzer::ArgumentMap", align 4
  %5 = alloca ptr, align 8
  %6 = alloca ptr, align 8
  %7 = alloca i32, align 4
  %8 = getelementptr inbounds %"class.BCEscapeAnalyzer::ArgumentMap", ptr %4, i32 0, i32 0
  store i32 %1, ptr %8, align 4
  store ptr %0, ptr %5, align 8
  store ptr %2, ptr %6, align 8
  %9 = load ptr, ptr %5, align 8
  store i32 0, ptr %7, align 4
  br label %10

10:                                               ; preds = %22, %3
  %11 = load i32, ptr %7, align 4
  %12 = getelementptr inbounds %class.BCEscapeAnalyzer, ptr %9, i32 0, i32 5
  %13 = load i32, ptr %12, align 8
  %14 = icmp slt i32 %11, %13
  br i1 %14, label %15, label %25

15:                                               ; preds = %10
  %16 = load i32, ptr %7, align 4
  %17 = call noundef zeroext i1 @_ZNK16BCEscapeAnalyzer11ArgumentMap8containsEj(ptr noundef nonnull align 4 dereferenceable(4) %4, i32 noundef %16)
  br i1 %17, label %18, label %21

18:                                               ; preds = %15
  %19 = load ptr, ptr %6, align 8
  %20 = load i32, ptr %7, align 4
  call void @_ZN9VectorSet6removeEj(ptr noundef nonnull align 8 dereferenceable(32) %19, i32 noundef %20)
  br label %21

21:                                               ; preds = %18, %15
  br label %22

22:                                               ; preds = %21
  %23 = load i32, ptr %7, align 4
  %24 = add nsw i32 %23, 1
  store i32 %24, ptr %7, align 4
  br label %10, !llvm.loop !11

25:                                               ; preds = %10
  ret void
}