; Function Attrs: mustprogress nofree norecurse nosync nounwind memory(readwrite, inaccessiblemem: none) uwtable
define hidden void @_ZN16BCEscapeAnalyzer10clear_bitsENS_11ArgumentMapER9VectorSet(ptr nocapture noundef nonnull readonly align 8 dereferenceable(196) %0, i32 %1, ptr nocapture noundef nonnull readonly align 8 dereferenceable(32) %2) local_unnamed_addr #3 align 2 {
  %4 = getelementptr inbounds i8, ptr %0, i64 32
  %5 = load i32, ptr %4, align 8
  %6 = icmp sgt i32 %5, 0
  br i1 %6, label %.lr.ph, label %._crit_edge

.lr.ph:                                           ; preds = %3
  %7 = getelementptr inbounds i8, ptr %2, i64 8
  br label %8

8:                                                ; preds = %.lr.ph, %_ZN9VectorSet6removeEj.exit
  %9 = phi i32 [ %5, %.lr.ph ], [ %24, %_ZN9VectorSet6removeEj.exit ]
  %.05 = phi i32 [ 0, %.lr.ph ], [ %25, %_ZN9VectorSet6removeEj.exit ]
  %spec.store.select.i.i = tail call i32 @llvm.umin.i32(i32 %.05, i32 29)
  %10 = shl nuw i32 4, %spec.store.select.i.i
  %11 = and i32 %10, %1
  %.not = icmp eq i32 %11, 0
  br i1 %.not, label %_ZN9VectorSet6removeEj.exit, label %12

12:                                               ; preds = %8
  %13 = lshr i32 %.05, 5
  %14 = load i32, ptr %2, align 8
  %.not.i = icmp ult i32 %13, %14
  br i1 %.not.i, label %15, label %_ZN9VectorSet6removeEj.exit

15:                                               ; preds = %12
  %16 = and i32 %.05, 31
  %17 = shl nuw i32 1, %16
  %18 = xor i32 %17, -1
  %19 = load ptr, ptr %7, align 8
  %20 = zext nneg i32 %13 to i64
  %21 = getelementptr inbounds i32, ptr %19, i64 %20
  %22 = load i32, ptr %21, align 4
  %23 = and i32 %22, %18
  store i32 %23, ptr %21, align 4
  %.pre = load i32, ptr %4, align 8
  br label %_ZN9VectorSet6removeEj.exit

_ZN9VectorSet6removeEj.exit:                      ; preds = %15, %12, %8
  %24 = phi i32 [ %.pre, %15 ], [ %9, %12 ], [ %9, %8 ]
  %25 = add nuw nsw i32 %.05, 1
  %26 = icmp slt i32 %25, %24
  br i1 %26, label %8, label %._crit_edge, !llvm.loop !11

._crit_edge:                                      ; preds = %_ZN9VectorSet6removeEj.exit, %3
  ret void
}